target datalayout = "e-m:e-p270:32:32-p271:32:32-p272:64:64-i64:64-i128:128-f80:128-n8:16:32:64-S128"
target triple = "x86_64-pc-linux-gnu"

%struct.lua_State = type { %struct.GCRef, i8, i8, i8, i8, %struct.MRef, %struct.GCRef, ptr, ptr, %struct.MRef, %struct.MRef, %struct.GCRef, %struct.GCRef, ptr, i32 }
%struct.MRef = type { i64 }
%struct.GCRef = type { i64 }
%struct.GCstr = type { %struct.GCRef, i8, i8, i8, i8, i32, i32, i32 }
%union.TValue = type { i64 }
%struct.MatchState = type { ptr, ptr, ptr, i32, i32, [32 x %struct.anon.2] }
%struct.anon.2 = type { ptr, i64 }
%struct.GCfuncC = type { %struct.GCRef, i8, i8, i8, i8, %struct.GCRef, %struct.GCRef, %struct.MRef, ptr, [1 x %union.TValue] }
%struct.anon.0 = type { i32, i32 }

@.str.3 = private unnamed_addr constant [18 x i8] c"too many captures\00", align 1

; Function Attrs: nounwind uwtable
define internal void @push_onecapture(ptr noundef %0, i32 noundef %1, ptr noundef %2, ptr noundef %3) #0 {
  %5 = alloca ptr, align 8
  %6 = alloca i32, align 4
  %7 = alloca ptr, align 8
  %8 = alloca ptr, align 8
  %9 = alloca i64, align 8
  store ptr %0, ptr %5, align 8, !tbaa !71
  store i32 %1, ptr %6, align 4, !tbaa !30
  store ptr %2, ptr %7, align 8, !tbaa !31
  store ptr %3, ptr %8, align 8, !tbaa !31
  %10 = load i32, ptr %6, align 4, !tbaa !30
  %11 = load ptr, ptr %5, align 8, !tbaa !71
  %12 = getelementptr inbounds nuw %struct.MatchState, ptr %11, i32 0, i32 3
  %13 = load i32, ptr %12, align 8, !tbaa !58
  %14 = icmp sge i32 %10, %13
  br i1 %14, label %15, label %33

15:                                               ; preds = %4
  %16 = load i32, ptr %6, align 4, !tbaa !30
  %17 = icmp eq i32 %16, 0
  br i1 %17, label %18, label %28

18:                                               ; preds = %15
  %19 = load ptr, ptr %5, align 8, !tbaa !71
  %20 = getelementptr inbounds nuw %struct.MatchState, ptr %19, i32 0, i32 2
  %21 = load ptr, ptr %20, align 8, !tbaa !53
  %22 = load ptr, ptr %7, align 8, !tbaa !31
  %23 = load ptr, ptr %8, align 8, !tbaa !31
  %24 = load ptr, ptr %7, align 8, !tbaa !31
  %25 = ptrtoint ptr %23 to i64
  %26 = ptrtoint ptr %24 to i64
  %27 = sub i64 %25, %26
  call void @lua_pushlstring(ptr noundef %21, ptr noundef %22, i64 noundef %27)
  br label %32

28:                                               ; preds = %15
  %29 = load ptr, ptr %5, align 8, !tbaa !71
  %30 = getelementptr inbounds nuw %struct.MatchState, ptr %29, i32 0, i32 2
  %31 = load ptr, ptr %30, align 8, !tbaa !53
  call void @lj_err_caller(ptr noundef %31, i32 noundef 1869) #8
  unreachable

32:                                               ; preds = %18
  br label %81

33:                                               ; preds = %4
  call void @llvm.lifetime.start.p0(i64 8, ptr %9) #7
  %34 = load ptr, ptr %5, align 8, !tbaa !71
  %35 = getelementptr inbounds nuw %struct.MatchState, ptr %34, i32 0, i32 5
  %36 = load i32, ptr %6, align 4, !tbaa !30
  %37 = sext i32 %36 to i64
  %38 = getelementptr inbounds [32 x %struct.anon.2], ptr %35, i64 0, i64 %37
  %39 = getelementptr inbounds nuw %struct.anon.2, ptr %38, i32 0, i32 1
  %40 = load i64, ptr %39, align 8, !tbaa !76
  store i64 %40, ptr %9, align 8, !tbaa !52
  %41 = load i64, ptr %9, align 8, !tbaa !52
  %42 = icmp eq i64 %41, -1
  br i1 %42, label %43, label %47

43:                                               ; preds = %33
  %44 = load ptr, ptr %5, align 8, !tbaa !71
  %45 = getelementptr inbounds nuw %struct.MatchState, ptr %44, i32 0, i32 2
  %46 = load ptr, ptr %45, align 8, !tbaa !53
  call void @lj_err_caller(ptr noundef %46, i32 noundef 1909) #8
  unreachable

47:                                               ; preds = %33
  %48 = load i64, ptr %9, align 8, !tbaa !52
  %49 = icmp eq i64 %48, -2
  br i1 %49, label %50, label %68

50:                                               ; preds = %47
  %51 = load ptr, ptr %5, align 8, !tbaa !71
  %52 = getelementptr inbounds nuw %struct.MatchState, ptr %51, i32 0, i32 2
  %53 = load ptr, ptr %52, align 8, !tbaa !53
  %54 = load ptr, ptr %5, align 8, !tbaa !71
  %55 = getelementptr inbounds nuw %struct.MatchState, ptr %54, i32 0, i32 5
  %56 = load i32, ptr %6, align 4, !tbaa !30
  %57 = sext i32 %56 to i64
  %58 = getelementptr inbounds [32 x %struct.anon.2], ptr %55, i64 0, i64 %57
  %59 = getelementptr inbounds nuw %struct.anon.2, ptr %58, i32 0, i32 0
  %60 = load ptr, ptr %59, align 8, !tbaa !74
  %61 = load ptr, ptr %5, align 8, !tbaa !71
  %62 = getelementptr inbounds nuw %struct.MatchState, ptr %61, i32 0, i32 0
  %63 = load ptr, ptr %62, align 8, !tbaa !55
  %64 = ptrtoint ptr %60 to i64
  %65 = ptrtoint ptr %63 to i64
  %66 = sub i64 %64, %65
  %67 = add nsw i64 %66, 1
  call void @lua_pushinteger(ptr noundef %53, i64 noundef %67)
  br label %80

68:                                               ; preds = %47
  %69 = load ptr, ptr %5, align 8, !tbaa !71
  %70 = getelementptr inbounds nuw %struct.MatchState, ptr %69, i32 0, i32 2
  %71 = load ptr, ptr %70, align 8, !tbaa !53
  %72 = load ptr, ptr %5, align 8, !tbaa !71
  %73 = getelementptr inbounds nuw %struct.MatchState, ptr %72, i32 0, i32 5
  %74 = load i32, ptr %6, align 4, !tbaa !30
  %75 = sext i32 %74 to i64
  %76 = getelementptr inbounds [32 x %struct.anon.2], ptr %73, i64 0, i64 %75
  %77 = getelementptr inbounds nuw %struct.anon.2, ptr %76, i32 0, i32 0
  %78 = load ptr, ptr %77, align 8, !tbaa !74
  %79 = load i64, ptr %9, align 8, !tbaa !52
  call void @lua_pushlstring(ptr noundef %71, ptr noundef %78, i64 noundef %79)
  br label %80

80:                                               ; preds = %68, %50
  call void @llvm.lifetime.end.p0(i64 8, ptr %9) #7
  br label %81

81:                                               ; preds = %80, %32
  ret void
}

; Function Attrs: nounwind uwtable
define internal i32 @push_captures(ptr noundef %0, ptr noundef %1, ptr noundef %2) #0 {
  %4 = alloca ptr, align 8
  %5 = alloca ptr, align 8
  %6 = alloca ptr, align 8
  %7 = alloca i32, align 4
  %8 = alloca i32, align 4
  store ptr %0, ptr %4, align 8, !tbaa !71
  store ptr %1, ptr %5, align 8, !tbaa !31
  store ptr %2, ptr %6, align 8, !tbaa !31
  call void @llvm.lifetime.start.p0(i64 4, ptr %7) #7
  call void @llvm.lifetime.start.p0(i64 4, ptr %8) #7
  %9 = load ptr, ptr %4, align 8, !tbaa !71
  %10 = getelementptr inbounds nuw %struct.MatchState, ptr %9, i32 0, i32 3
  %11 = load i32, ptr %10, align 8, !tbaa !58
  %12 = icmp eq i32 %11, 0
  br i1 %12, label %13, label %17

13:                                               ; preds = %3
  %14 = load ptr, ptr %5, align 8, !tbaa !31
  %15 = icmp ne ptr %14, null
  br i1 %15, label %16, label %17

16:                                               ; preds = %13
  br label %21

17:                                               ; preds = %13, %3
  %18 = load ptr, ptr %4, align 8, !tbaa !71
  %19 = getelementptr inbounds nuw %struct.MatchState, ptr %18, i32 0, i32 3
  %20 = load i32, ptr %19, align 8, !tbaa !58
  br label %21

21:                                               ; preds = %17, %16
  %22 = phi i32 [ 1, %16 ], [ %20, %17 ]
  store i32 %22, ptr %8, align 4, !tbaa !30
  %23 = load ptr, ptr %4, align 8, !tbaa !71
  %24 = getelementptr inbounds nuw %struct.MatchState, ptr %23, i32 0, i32 2
  %25 = load ptr, ptr %24, align 8, !tbaa !53
  %26 = load i32, ptr %8, align 4, !tbaa !30
  call void @luaL_checkstack(ptr noundef %25, i32 noundef %26, ptr noundef @.str.3)
  store i32 0, ptr %7, align 4, !tbaa !30
  br label %27

27:                                               ; preds = %36, %21
  %28 = load i32, ptr %7, align 4, !tbaa !30
  %29 = load i32, ptr %8, align 4, !tbaa !30
  %30 = icmp slt i32 %28, %29
  br i1 %30, label %31, label %39

31:                                               ; preds = %27
  %32 = load ptr, ptr %4, align 8, !tbaa !71
  %33 = load i32, ptr %7, align 4, !tbaa !30
  %34 = load ptr, ptr %5, align 8, !tbaa !31
  %35 = load ptr, ptr %6, align 8, !tbaa !31
  call void @push_onecapture(ptr noundef %32, i32 noundef %33, ptr noundef %34, ptr noundef %35)
  br label %36

36:                                               ; preds = %31
  %37 = load i32, ptr %7, align 4, !tbaa !30
  %38 = add nsw i32 %37, 1
  store i32 %38, ptr %7, align 4, !tbaa !30
  br label %27, !llvm.loop !73

39:                                               ; preds = %27
  %40 = load i32, ptr %8, align 4, !tbaa !30
  call void @llvm.lifetime.end.p0(i64 4, ptr %8) #7
  call void @llvm.lifetime.end.p0(i64 4, ptr %7) #7
  ret i32 %40
}

; Function Attrs: nounwind uwtable
define internal i32 @lj_cf_string_gmatch_aux(ptr noundef %0) #0 {
  %2 = alloca i32, align 4
  %3 = alloca ptr, align 8
  %4 = alloca ptr, align 8
  %5 = alloca ptr, align 8
  %6 = alloca ptr, align 8
  %7 = alloca ptr, align 8
  %8 = alloca ptr, align 8
  %9 = alloca %struct.MatchState, align 8
  %10 = alloca ptr, align 8
  %11 = alloca i32, align 4
  %12 = alloca i32, align 4
  store ptr %0, ptr %3, align 8, !tbaa !4
  call void @llvm.lifetime.start.p0(i64 8, ptr %4) #7
  %13 = load ptr, ptr %3, align 8, !tbaa !4
  %14 = getelementptr inbounds nuw %struct.lua_State, ptr %13, i32 0, i32 7
  %15 = load ptr, ptr %14, align 8, !tbaa !33
  %16 = getelementptr inbounds %union.TValue, ptr %15, i64 -2
  %17 = getelementptr inbounds nuw %struct.GCRef, ptr %16, i32 0, i32 0
  %18 = load i64, ptr %17, align 8, !tbaa !22
  %19 = and i64 %18, 140737488355327
  %20 = inttoptr i64 %19 to ptr
  %21 = getelementptr inbounds nuw %struct.GCfuncC, ptr %20, i32 0, i32 9
  %22 = getelementptr inbounds [1 x %union.TValue], ptr %21, i64 0, i64 1
  %23 = getelementptr inbounds nuw %struct.GCRef, ptr %22, i32 0, i32 0
  %24 = load i64, ptr %23, align 8, !tbaa !22
  %25 = and i64 %24, 140737488355327
  %26 = inttoptr i64 %25 to ptr
  %27 = getelementptr inbounds %struct.GCstr, ptr %26, i64 1
  store ptr %27, ptr %4, align 8, !tbaa !31
  call void @llvm.lifetime.start.p0(i64 8, ptr %5) #7
  %28 = load ptr, ptr %3, align 8, !tbaa !4
  %29 = getelementptr inbounds nuw %struct.lua_State, ptr %28, i32 0, i32 7
  %30 = load ptr, ptr %29, align 8, !tbaa !33
  %31 = getelementptr inbounds %union.TValue, ptr %30, i64 -2
  %32 = getelementptr inbounds nuw %struct.GCRef, ptr %31, i32 0, i32 0
  %33 = load i64, ptr %32, align 8, !tbaa !22
  %34 = and i64 %33, 140737488355327
  %35 = inttoptr i64 %34 to ptr
  %36 = getelementptr inbounds nuw %struct.GCfuncC, ptr %35, i32 0, i32 9
  %37 = getelementptr inbounds [1 x %union.TValue], ptr %36, i64 0, i64 0
  %38 = getelementptr inbounds nuw %struct.GCRef, ptr %37, i32 0, i32 0
  %39 = load i64, ptr %38, align 8, !tbaa !22
  %40 = and i64 %39, 140737488355327
  %41 = inttoptr i64 %40 to ptr
  store ptr %41, ptr %5, align 8, !tbaa !26
  call void @llvm.lifetime.start.p0(i64 8, ptr %6) #7
  %42 = load ptr, ptr %5, align 8, !tbaa !26
  %43 = getelementptr inbounds %struct.GCstr, ptr %42, i64 1
  store ptr %43, ptr %6, align 8, !tbaa !31
  call void @llvm.lifetime.start.p0(i64 8, ptr %7) #7
  %44 = load ptr, ptr %3, align 8, !tbaa !4
  %45 = getelementptr inbounds nuw %struct.lua_State, ptr %44, i32 0, i32 7
  %46 = load ptr, ptr %45, align 8, !tbaa !33
  %47 = getelementptr inbounds %union.TValue, ptr %46, i64 -2
  %48 = getelementptr inbounds nuw %struct.GCRef, ptr %47, i32 0, i32 0
  %49 = load i64, ptr %48, align 8, !tbaa !22
  %50 = and i64 %49, 140737488355327
  %51 = inttoptr i64 %50 to ptr
  %52 = getelementptr inbounds nuw %struct.GCfuncC, ptr %51, i32 0, i32 9
  %53 = getelementptr inbounds [1 x %union.TValue], ptr %52, i64 0, i64 2
  store ptr %53, ptr %7, align 8, !tbaa !25
  call void @llvm.lifetime.start.p0(i64 8, ptr %8) #7
  %54 = load ptr, ptr %6, align 8, !tbaa !31
  %55 = load ptr, ptr %7, align 8, !tbaa !25
  %56 = getelementptr inbounds nuw %struct.anon.0, ptr %55, i32 0, i32 0
  %57 = load i32, ptr %56, align 8, !tbaa !22
  %58 = zext i32 %57 to i64
  %59 = getelementptr inbounds nuw i8, ptr %54, i64 %58
  store ptr %59, ptr %8, align 8, !tbaa !31
  call void @llvm.lifetime.start.p0(i64 544, ptr %9) #7
  %60 = load ptr, ptr %3, align 8, !tbaa !4
  %61 = getelementptr inbounds nuw %struct.MatchState, ptr %9, i32 0, i32 2
  store ptr %60, ptr %61, align 8, !tbaa !53
  %62 = load ptr, ptr %6, align 8, !tbaa !31
  %63 = getelementptr inbounds nuw %struct.MatchState, ptr %9, i32 0, i32 0
  store ptr %62, ptr %63, align 8, !tbaa !55
  %64 = load ptr, ptr %6, align 8, !tbaa !31
  %65 = load ptr, ptr %5, align 8, !tbaa !26
  %66 = getelementptr inbounds nuw %struct.GCstr, ptr %65, i32 0, i32 7
  %67 = load i32, ptr %66, align 4, !tbaa !28
  %68 = zext i32 %67 to i64
  %69 = getelementptr inbounds nuw i8, ptr %64, i64 %68
  %70 = getelementptr inbounds nuw %struct.MatchState, ptr %9, i32 0, i32 1
  store ptr %69, ptr %70, align 8, !tbaa !56
  br label %71

71:                                               ; preds = %107, %1
  %72 = load ptr, ptr %8, align 8, !tbaa !31
  %73 = getelementptr inbounds nuw %struct.MatchState, ptr %9, i32 0, i32 1
  %74 = load ptr, ptr %73, align 8, !tbaa !56
  %75 = icmp ule ptr %72, %74
  br i1 %75, label %76, label %110

76:                                               ; preds = %71
  call void @llvm.lifetime.start.p0(i64 8, ptr %10) #7
  %77 = getelementptr inbounds nuw %struct.MatchState, ptr %9, i32 0, i32 4
  store i32 0, ptr %77, align 4, !tbaa !57
  %78 = getelementptr inbounds nuw %struct.MatchState, ptr %9, i32 0, i32 3
  store i32 0, ptr %78, align 8, !tbaa !58
  %79 = load ptr, ptr %8, align 8, !tbaa !31
  %80 = load ptr, ptr %4, align 8, !tbaa !31
  %81 = call ptr @match(ptr noundef %9, ptr noundef %79, ptr noundef %80)
  store ptr %81, ptr %10, align 8, !tbaa !31
  %82 = icmp ne ptr %81, null
  br i1 %82, label %83, label %103

83:                                               ; preds = %76
  call void @llvm.lifetime.start.p0(i64 4, ptr %11) #7
  %84 = load ptr, ptr %10, align 8, !tbaa !31
  %85 = load ptr, ptr %6, align 8, !tbaa !31
  %86 = ptrtoint ptr %84 to i64
  %87 = ptrtoint ptr %85 to i64
  %88 = sub i64 %86, %87
  %89 = trunc i64 %88 to i32
  store i32 %89, ptr %11, align 4, !tbaa !30
  %90 = load ptr, ptr %10, align 8, !tbaa !31
  %91 = load ptr, ptr %8, align 8, !tbaa !31
  %92 = icmp eq ptr %90, %91
  br i1 %92, label %93, label %96

93:                                               ; preds = %83
  %94 = load i32, ptr %11, align 4, !tbaa !30
  %95 = add nsw i32 %94, 1
  store i32 %95, ptr %11, align 4, !tbaa !30
  br label %96

96:                                               ; preds = %93, %83
  %97 = load i32, ptr %11, align 4, !tbaa !30
  %98 = load ptr, ptr %7, align 8, !tbaa !25
  %99 = getelementptr inbounds nuw %struct.anon.0, ptr %98, i32 0, i32 0
  store i32 %97, ptr %99, align 8, !tbaa !22
  %100 = load ptr, ptr %8, align 8, !tbaa !31
  %101 = load ptr, ptr %10, align 8, !tbaa !31
  %102 = call i32 @push_captures(ptr noundef %9, ptr noundef %100, ptr noundef %101)
  store i32 %102, ptr %2, align 4
  store i32 1, ptr %12, align 4
  call void @llvm.lifetime.end.p0(i64 4, ptr %11) #7
  br label %104

103:                                              ; preds = %76
  store i32 0, ptr %12, align 4
  br label %104

104:                                              ; preds = %103, %96
  call void @llvm.lifetime.end.p0(i64 8, ptr %10) #7
  %105 = load i32, ptr %12, align 4
  switch i32 %105, label %111 [
    i32 0, label %106
  ]

106:                                              ; preds = %104
  br label %107

107:                                              ; preds = %106
  %108 = load ptr, ptr %8, align 8, !tbaa !31
  %109 = getelementptr inbounds nuw i8, ptr %108, i32 1
  store ptr %109, ptr %8, align 8, !tbaa !31
  br label %71, !llvm.loop !83

110:                                              ; preds = %71
  store i32 0, ptr %2, align 4
  store i32 1, ptr %12, align 4
  br label %111

111:                                              ; preds = %110, %104
  call void @llvm.lifetime.end.p0(i64 544, ptr %9) #7
  call void @llvm.lifetime.end.p0(i64 8, ptr %8) #7
  call void @llvm.lifetime.end.p0(i64 8, ptr %7) #7
  call void @llvm.lifetime.end.p0(i64 8, ptr %6) #7
  call void @llvm.lifetime.end.p0(i64 8, ptr %5) #7
  call void @llvm.lifetime.end.p0(i64 8, ptr %4) #7
  %112 = load i32, ptr %2, align 4
  ret i32 %112
}