; Function Attrs: nounwind uwtable
define internal i32 @lj_cf_string_gmatch_aux(ptr noundef %0) #0 {
  %2 = alloca %struct.MatchState, align 8
  %3 = getelementptr inbounds nuw i8, ptr %0, i64 32
  %4 = load ptr, ptr %3, align 8, !tbaa !22
  %5 = getelementptr inbounds i8, ptr %4, i64 -16
  %6 = load i64, ptr %5, align 8, !tbaa !16
  %7 = and i64 %6, 140737488355327
  %8 = inttoptr i64 %7 to ptr
  %9 = getelementptr inbounds nuw i8, ptr %8, i64 48
  %10 = getelementptr inbounds nuw i8, ptr %8, i64 56
  %11 = load i64, ptr %10, align 8, !tbaa !16
  %12 = and i64 %11, 140737488355327
  %13 = inttoptr i64 %12 to ptr
  %14 = getelementptr inbounds nuw i8, ptr %13, i64 24
  %15 = load i64, ptr %9, align 8, !tbaa !16
  %16 = and i64 %15, 140737488355327
  %17 = inttoptr i64 %16 to ptr
  %18 = getelementptr inbounds nuw i8, ptr %17, i64 24
  %19 = getelementptr inbounds nuw i8, ptr %8, i64 64
  %20 = load i32, ptr %19, align 8, !tbaa !16
  call void @llvm.lifetime.start.p0(i64 544, ptr nonnull %2) #7
  %21 = getelementptr inbounds nuw i8, ptr %2, i64 16
  store ptr %0, ptr %21, align 8, !tbaa !43
  store ptr %18, ptr %2, align 8, !tbaa !46
  %22 = getelementptr inbounds nuw i8, ptr %17, i64 20
  %23 = load i32, ptr %22, align 4, !tbaa !19
  %24 = zext i32 %23 to i64
  %25 = getelementptr inbounds nuw i8, ptr %18, i64 %24
  %26 = getelementptr inbounds nuw i8, ptr %2, i64 8
  store ptr %25, ptr %26, align 8, !tbaa !47
  %.not38 = icmp ugt i32 %20, %23
  br i1 %.not38, label %push_captures.exit.thread31, label %.lr.ph

.lr.ph:                                           ; preds = %1
  %27 = zext i32 %20 to i64
  %28 = getelementptr inbounds nuw i8, ptr %18, i64 %27
  %29 = getelementptr inbounds nuw i8, ptr %2, i64 28
  %30 = getelementptr inbounds nuw i8, ptr %2, i64 24
  br label %31

31:                                               ; preds = %.lr.ph, %push_captures.exit.thread
  %.02639 = phi ptr [ %28, %.lr.ph ], [ %69, %push_captures.exit.thread ]
  store i32 0, ptr %29, align 4, !tbaa !48
  store i32 0, ptr %30, align 8, !tbaa !49
  %32 = call fastcc ptr @match(ptr noundef %2, ptr noundef nonnull %.02639, ptr noundef nonnull %14)
  %.not28 = icmp eq ptr %32, null
  br i1 %.not28, label %push_captures.exit.thread, label %33

33:                                               ; preds = %31
  %34 = ptrtoint ptr %32 to i64
  %35 = ptrtoint ptr %18 to i64
  %36 = sub i64 %34, %35
  %37 = trunc i64 %36 to i32
  %38 = icmp eq ptr %32, %.02639
  %39 = zext i1 %38 to i32
  %spec.select = add nsw i32 %37, %39
  store i32 %spec.select, ptr %19, align 8, !tbaa !16
  %40 = load i32, ptr %30, align 8, !tbaa !49
  %spec.select.i = call i32 @llvm.umax.i32(i32 %40, i32 1)
  %41 = load ptr, ptr %21, align 8, !tbaa !43
  call void @luaL_checkstack(ptr noundef %41, i32 noundef %spec.select.i, ptr noundef nonnull @.str.3) #7
  %42 = icmp sgt i32 %spec.select.i, 0
  br i1 %42, label %.lr.ph.i.preheader, label %push_captures.exit.thread31

.lr.ph.i.preheader:                               ; preds = %33
  %43 = ptrtoint ptr %.02639 to i64
  %44 = sub i64 %34, %43
  %45 = getelementptr inbounds nuw i8, ptr %2, i64 32
  %46 = zext nneg i32 %spec.select.i to i64
  br label %.lr.ph.i

.lr.ph.i:                                         ; preds = %.lr.ph.i.preheader, %push_onecapture.exit
  %indvars.iv = phi i64 [ 0, %.lr.ph.i.preheader ], [ %indvars.iv.next, %push_onecapture.exit ]
  %47 = load i32, ptr %30, align 8, !tbaa !49
  %48 = sext i32 %47 to i64
  %.not.i = icmp slt i64 %indvars.iv, %48
  br i1 %.not.i, label %54, label %49

49:                                               ; preds = %.lr.ph.i
  %50 = icmp eq i64 %indvars.iv, 0
  %51 = load ptr, ptr %21, align 8, !tbaa !43
  br i1 %50, label %52, label %53

52:                                               ; preds = %49
  call void @lua_pushlstring(ptr noundef %51, ptr noundef nonnull %.02639, i64 noundef %44) #7
  br label %push_onecapture.exit

53:                                               ; preds = %49
  call void @lj_err_caller(ptr noundef %51, i32 noundef 1869) #8
  unreachable

54:                                               ; preds = %.lr.ph.i
  %55 = getelementptr inbounds nuw [32 x %struct.anon.2], ptr %45, i64 0, i64 %indvars.iv
  %56 = getelementptr inbounds nuw i8, ptr %55, i64 8
  %57 = load i64, ptr %56, align 8, !tbaa !54
  %58 = load ptr, ptr %21, align 8, !tbaa !43
  switch i64 %57, label %67 [
    i64 -1, label %59
    i64 -2, label %60
  ]

59:                                               ; preds = %54
  call void @lj_err_caller(ptr noundef %58, i32 noundef 1909) #8
  unreachable

60:                                               ; preds = %54
  %61 = load ptr, ptr %55, align 8, !tbaa !56
  %62 = load ptr, ptr %2, align 8, !tbaa !46
  %63 = ptrtoint ptr %61 to i64
  %64 = ptrtoint ptr %62 to i64
  %65 = add i64 %63, 1
  %66 = sub i64 %65, %64
  call void @lua_pushinteger(ptr noundef %58, i64 noundef %66) #7
  br label %push_onecapture.exit

67:                                               ; preds = %54
  %68 = load ptr, ptr %55, align 8, !tbaa !56
  call void @lua_pushlstring(ptr noundef %58, ptr noundef %68, i64 noundef %57) #7
  br label %push_onecapture.exit

push_onecapture.exit:                             ; preds = %52, %60, %67
  %indvars.iv.next = add nuw nsw i64 %indvars.iv, 1
  %exitcond.not.i = icmp eq i64 %indvars.iv.next, %46
  br i1 %exitcond.not.i, label %push_captures.exit.thread31, label %.lr.ph.i, !llvm.loop !53

push_captures.exit.thread:                        ; preds = %31
  %69 = getelementptr inbounds nuw i8, ptr %.02639, i64 1
  %70 = load ptr, ptr %26, align 8, !tbaa !47
  %.not = icmp ugt ptr %69, %70
  br i1 %.not, label %push_captures.exit.thread31, label %31, !llvm.loop !65

push_captures.exit.thread31:                      ; preds = %push_captures.exit.thread, %push_onecapture.exit, %1, %33
  %.2 = phi i32 [ %40, %33 ], [ 0, %1 ], [ %spec.select.i, %push_onecapture.exit ], [ 0, %push_captures.exit.thread ]
  call void @llvm.lifetime.end.p0(i64 544, ptr nonnull %2) #7
  ret i32 %.2
}